; ModuleID = '57/318.c'
source_filename = "57/318.c"
target datalayout = "e-m:e-p270:32:32-p271:32:32-p272:64:64-i64:64-f80:128-n8:16:32:64-S128"
target triple = "x86_64-pc-linux-gnu"

@.str = private unnamed_addr constant [3 x i8] c"%d\00", align 1
@.str.1 = private unnamed_addr constant [3 x i8] c"%s\00", align 1
@.str.2 = private unnamed_addr constant [3 x i8] c"%c\00", align 1
@.str.3 = private unnamed_addr constant [2 x i8] c"\0A\00", align 1

; Function Attrs: noinline nounwind uwtable
define dso_local i32 @cutsign(i8* %0, i32 %1) #0 {
  %3 = alloca i32, align 4
  %4 = alloca i8*, align 8
  %5 = alloca i32, align 4
  store i8* %0, i8** %4, align 8
  store i32 %1, i32* %5, align 4
  %6 = load i8*, i8** %4, align 8
  %7 = load i32, i32* %5, align 4
  %8 = sub nsw i32 %7, 1
  %9 = sext i32 %8 to i64
  %10 = getelementptr inbounds i8, i8* %6, i64 %9
  %11 = load i8, i8* %10, align 1
  %12 = sext i8 %11 to i32
  %13 = icmp eq i32 %12, 121
  br i1 %13, label %23, label %14

14:                                               ; preds = %2
  %15 = load i8*, i8** %4, align 8
  %16 = load i32, i32* %5, align 4
  %17 = sub nsw i32 %16, 1
  %18 = sext i32 %17 to i64
  %19 = getelementptr inbounds i8, i8* %15, i64 %18
  %20 = load i8, i8* %19, align 1
  %21 = sext i8 %20 to i32
  %22 = icmp eq i32 %21, 114
  br i1 %22, label %23, label %26

23:                                               ; preds = %14, %2
  %24 = load i32, i32* %5, align 4
  %25 = sub nsw i32 %24, 2
  store i32 %25, i32* %3, align 4
  br label %29

26:                                               ; preds = %14
  %27 = load i32, i32* %5, align 4
  %28 = sub nsw i32 %27, 3
  store i32 %28, i32* %3, align 4
  br label %29

29:                                               ; preds = %26, %23
  %30 = load i32, i32* %3, align 4
  ret i32 %30
}

; Function Attrs: noinline nounwind uwtable
define dso_local i32 @main() #0 {
  %1 = alloca i32, align 4
  %2 = alloca i32, align 4
  %3 = alloca i32, align 4
  %4 = alloca i32, align 4
  %5 = alloca [50 x i32], align 16
  %6 = alloca [50 x [15 x i8]], align 16
  store i32 0, i32* %1, align 4
  %7 = call i32 (i8*, ...) @__isoc99_scanf(i8* getelementptr inbounds ([3 x i8], [3 x i8]* @.str, i64 0, i64 0), i32* %2)
  store i32 0, i32* %3, align 4
  br label %8

8:                                                ; preds = %32, %0
  %9 = load i32, i32* %3, align 4
  %10 = load i32, i32* %2, align 4
  %11 = icmp slt i32 %9, %10
  br i1 %11, label %12, label %35

12:                                               ; preds = %8
  %13 = load i32, i32* %3, align 4
  %14 = sext i32 %13 to i64
  %15 = getelementptr inbounds [50 x [15 x i8]], [50 x [15 x i8]]* %6, i64 0, i64 %14
  %16 = getelementptr inbounds [15 x i8], [15 x i8]* %15, i64 0, i64 0
  %17 = call i32 (i8*, ...) @__isoc99_scanf(i8* getelementptr inbounds ([3 x i8], [3 x i8]* @.str.1, i64 0, i64 0), i8* %16)
  %18 = load i32, i32* %3, align 4
  %19 = sext i32 %18 to i64
  %20 = getelementptr inbounds [50 x [15 x i8]], [50 x [15 x i8]]* %6, i64 0, i64 %19
  %21 = getelementptr inbounds [15 x i8], [15 x i8]* %20, i64 0, i64 0
  %22 = load i32, i32* %3, align 4
  %23 = sext i32 %22 to i64
  %24 = getelementptr inbounds [50 x [15 x i8]], [50 x [15 x i8]]* %6, i64 0, i64 %23
  %25 = getelementptr inbounds [15 x i8], [15 x i8]* %24, i64 0, i64 0
  %26 = call i64 @strlen(i8* %25) #3
  %27 = trunc i64 %26 to i32
  %28 = call i32 @cutsign(i8* %21, i32 %27)
  %29 = load i32, i32* %3, align 4
  %30 = sext i32 %29 to i64
  %31 = getelementptr inbounds [50 x i32], [50 x i32]* %5, i64 0, i64 %30
  store i32 %28, i32* %31, align 4
  br label %32

32:                                               ; preds = %12
  %33 = load i32, i32* %3, align 4
  %34 = add nsw i32 %33, 1
  store i32 %34, i32* %3, align 4
  br label %8

35:                                               ; preds = %8
  store i32 0, i32* %3, align 4
  br label %36

36:                                               ; preds = %63, %35
  %37 = load i32, i32* %3, align 4
  %38 = load i32, i32* %2, align 4
  %39 = icmp slt i32 %37, %38
  br i1 %39, label %40, label %66

40:                                               ; preds = %36
  store i32 0, i32* %4, align 4
  br label %41

41:                                               ; preds = %58, %40
  %42 = load i32, i32* %4, align 4
  %43 = load i32, i32* %3, align 4
  %44 = sext i32 %43 to i64
  %45 = getelementptr inbounds [50 x i32], [50 x i32]* %5, i64 0, i64 %44
  %46 = load i32, i32* %45, align 4
  %47 = icmp slt i32 %42, %46
  br i1 %47, label %48, label %61

48:                                               ; preds = %41
  %49 = load i32, i32* %3, align 4
  %50 = sext i32 %49 to i64
  %51 = getelementptr inbounds [50 x [15 x i8]], [50 x [15 x i8]]* %6, i64 0, i64 %50
  %52 = load i32, i32* %4, align 4
  %53 = sext i32 %52 to i64
  %54 = getelementptr inbounds [15 x i8], [15 x i8]* %51, i64 0, i64 %53
  %55 = load i8, i8* %54, align 1
  %56 = sext i8 %55 to i32
  %57 = call i32 (i8*, ...) @printf(i8* getelementptr inbounds ([3 x i8], [3 x i8]* @.str.2, i64 0, i64 0), i32 %56)
  br label %58

58:                                               ; preds = %48
  %59 = load i32, i32* %4, align 4
  %60 = add nsw i32 %59, 1
  store i32 %60, i32* %4, align 4
  br label %41

61:                                               ; preds = %41
  %62 = call i32 (i8*, ...) @printf(i8* getelementptr inbounds ([2 x i8], [2 x i8]* @.str.3, i64 0, i64 0))
  br label %63

63:                                               ; preds = %61
  %64 = load i32, i32* %3, align 4
  %65 = add nsw i32 %64, 1
  store i32 %65, i32* %3, align 4
  br label %36

66:                                               ; preds = %36
  ret i32 0
}

declare dso_local i32 @__isoc99_scanf(i8*, ...) #1

; Function Attrs: nounwind readonly
declare dso_local i64 @strlen(i8*) #2

declare dso_local i32 @printf(i8*, ...) #1


!llvm.module.flags = !{!0}
!llvm.ident = !{!1}

!0 = !{i32 1, !"wchar_size", i32 4}
!1 = !{!"clang version 10.0.0-4ubuntu1 "}
