; ModuleID = 'source-C-CXX/56/318.c'
source_filename = "source-C-CXX/56/318.c"
target datalayout = "e-m:e-p270:32:32-p271:32:32-p272:64:64-i64:64-f80:128-n8:16:32:64-S128"
target triple = "x86_64-pc-linux-gnu"

@.str = private unnamed_addr constant [3 x i8] c"%d\00", align 1
@.str.1 = private unnamed_addr constant [3 x i8] c"%s\00", align 1

; Function Attrs: mustprogress nofree norecurse nosync nounwind readonly sspstrong uwtable willreturn
define dso_local i32 @cutsign(i8* nocapture readonly %0, i32 %1) local_unnamed_addr #0 {
  %3 = add nsw i32 %1, -1
  %4 = sext i32 %3 to i64
  %5 = getelementptr inbounds i8, i8* %0, i64 %4
  %6 = load i8, i8* %5, align 1, !tbaa !5
  %7 = icmp eq i8 %6, 121
  %8 = icmp eq i8 %6, 114
  %9 = or i1 %7, %8
  %10 = select i1 %9, i32 -2, i32 -3
  %11 = add nsw i32 %10, %1
  ret i32 %11
}

; Function Attrs: nofree nounwind sspstrong uwtable
define dso_local i32 @main() local_unnamed_addr #1 {
  %1 = alloca i32, align 4
  %2 = alloca [50 x i32], align 16
  %3 = alloca [50 x [15 x i8]], align 16
  %4 = bitcast i32* %1 to i8*
  call void @llvm.lifetime.start.p0i8(i64 4, i8* nonnull %4) #6
  %5 = bitcast [50 x i32]* %2 to i8*
  call void @llvm.lifetime.start.p0i8(i64 200, i8* nonnull %5) #6
  %6 = getelementptr inbounds [50 x [15 x i8]], [50 x [15 x i8]]* %3, i64 0, i64 0, i64 0
  call void @llvm.lifetime.start.p0i8(i64 750, i8* nonnull %6) #6
  %7 = call i32 (i8*, ...) @__isoc99_scanf(i8* getelementptr inbounds ([3 x i8], [3 x i8]* @.str, i64 0, i64 0), i32* nonnull %1)
  %8 = load i32, i32* %1, align 4, !tbaa !8
  %9 = icmp sgt i32 %8, 0
  br i1 %9, label %12, label %54

10:                                               ; preds = %12
  %11 = icmp sgt i32 %30, 0
  br i1 %11, label %33, label %54

12:                                               ; preds = %0, %12
  %13 = phi i64 [ %29, %12 ], [ 0, %0 ]
  %14 = getelementptr inbounds [50 x [15 x i8]], [50 x [15 x i8]]* %3, i64 0, i64 %13, i64 0
  %15 = call i32 (i8*, ...) @__isoc99_scanf(i8* getelementptr inbounds ([3 x i8], [3 x i8]* @.str.1, i64 0, i64 0), i8* nonnull %14)
  %16 = call i64 @strlen(i8* noundef nonnull %14) #7
  %17 = trunc i64 %16 to i32
  %18 = shl i64 %16, 32
  %19 = add i64 %18, -4294967296
  %20 = ashr exact i64 %19, 32
  %21 = getelementptr inbounds [50 x [15 x i8]], [50 x [15 x i8]]* %3, i64 0, i64 %13, i64 %20
  %22 = load i8, i8* %21, align 1, !tbaa !5
  %23 = icmp eq i8 %22, 121
  %24 = icmp eq i8 %22, 114
  %25 = or i1 %23, %24
  %26 = select i1 %25, i32 -2, i32 -3
  %27 = add nsw i32 %26, %17
  %28 = getelementptr inbounds [50 x i32], [50 x i32]* %2, i64 0, i64 %13
  store i32 %27, i32* %28, align 4, !tbaa !8
  %29 = add nuw nsw i64 %13, 1
  %30 = load i32, i32* %1, align 4, !tbaa !8
  %31 = sext i32 %30 to i64
  %32 = icmp slt i64 %29, %31
  br i1 %32, label %12, label %10, !llvm.loop !10

33:                                               ; preds = %10, %48
  %34 = phi i64 [ %50, %48 ], [ 0, %10 ]
  %35 = getelementptr inbounds [50 x i32], [50 x i32]* %2, i64 0, i64 %34
  %36 = load i32, i32* %35, align 4, !tbaa !8
  %37 = icmp sgt i32 %36, 0
  br i1 %37, label %38, label %48

38:                                               ; preds = %33
  %39 = zext i32 %36 to i64
  br label %40

40:                                               ; preds = %38, %40
  %41 = phi i64 [ 0, %38 ], [ %46, %40 ]
  %42 = getelementptr inbounds [50 x [15 x i8]], [50 x [15 x i8]]* %3, i64 0, i64 %34, i64 %41
  %43 = load i8, i8* %42, align 1, !tbaa !5
  %44 = sext i8 %43 to i32
  %45 = call i32 @putchar(i32 %44)
  %46 = add nuw nsw i64 %41, 1
  %47 = icmp eq i64 %46, %39
  br i1 %47, label %48, label %40, !llvm.loop !12

48:                                               ; preds = %40, %33
  %49 = call i32 @putchar(i32 10)
  %50 = add nuw nsw i64 %34, 1
  %51 = load i32, i32* %1, align 4, !tbaa !8
  %52 = sext i32 %51 to i64
  %53 = icmp slt i64 %50, %52
  br i1 %53, label %33, label %54, !llvm.loop !13

54:                                               ; preds = %48, %0, %10
  call void @llvm.lifetime.end.p0i8(i64 750, i8* nonnull %6) #6
  call void @llvm.lifetime.end.p0i8(i64 200, i8* nonnull %5) #6
  call void @llvm.lifetime.end.p0i8(i64 4, i8* nonnull %4) #6
  ret i32 0
}

; Function Attrs: argmemonly mustprogress nofree nosync nounwind willreturn
declare void @llvm.lifetime.start.p0i8(i64 immarg, i8* nocapture) #2

; Function Attrs: nofree nounwind
declare noundef i32 @__isoc99_scanf(i8* nocapture noundef readonly, ...) local_unnamed_addr #3

; Function Attrs: argmemonly mustprogress nofree nounwind readonly willreturn
declare i64 @strlen(i8* nocapture) local_unnamed_addr #4

; Function Attrs: argmemonly mustprogress nofree nosync nounwind willreturn
declare void @llvm.lifetime.end.p0i8(i64 immarg, i8* nocapture) #2

; Function Attrs: nofree nounwind
declare noundef i32 @putchar(i32 noundef) local_unnamed_addr #5


!llvm.module.flags = !{!0, !1, !2, !3}
!llvm.ident = !{!4}

!0 = !{i32 1, !"wchar_size", i32 4}
!1 = !{i32 7, !"PIC Level", i32 2}
!2 = !{i32 7, !"PIE Level", i32 2}
!3 = !{i32 7, !"uwtable", i32 1}
!4 = !{!"clang version 13.0.0"}
!5 = !{!6, !6, i64 0}
!6 = !{!"omnipotent char", !7, i64 0}
!7 = !{!"Simple C/C++ TBAA"}
!8 = !{!9, !9, i64 0}
!9 = !{!"int", !6, i64 0}
!10 = distinct !{!10, !11}
!11 = !{!"llvm.loop.mustprogress"}
!12 = distinct !{!12, !11}
!13 = distinct !{!13, !11}
